; Function Attrs: mustprogress ssp uwtable
define void @_ZN6open3d4core19MemoryManagerCached6MemcpyEPvRKNS0_6DeviceEPKvS5_m(ptr noundef nonnull readonly align 8 captures(none) dereferenceable(24) %0, ptr noundef %1, ptr noundef nonnull align 4 dereferenceable(8) %2, ptr noundef %3, ptr noundef nonnull align 4 dereferenceable(8) %4, i64 noundef %5) unnamed_addr #1 align 2 {
  %7 = getelementptr inbounds nuw i8, ptr %0, i64 8
  %8 = load ptr, ptr %7, align 8, !tbaa !36
  %9 = load ptr, ptr %8, align 8, !tbaa !4
  %10 = getelementptr inbounds nuw i8, ptr %9, i64 32
  %11 = load ptr, ptr %10, align 8
  tail call void %11(ptr noundef nonnull align 8 dereferenceable(8) %8, ptr noundef %1, ptr noundef nonnull align 4 dereferenceable(8) %2, ptr noundef %3, ptr noundef nonnull align 4 dereferenceable(8) %4, i64 noundef %5)
  ret void
}